; Function Attrs: mustprogress nounwind uwtable
define internal fastcc void @_ZN12_GLOBAL__N_116printThunkMethodERKN5clang9ThunkInfoERN4llvm11raw_ostreamE(ptr %.40.val, ptr noundef nonnull align 8 dereferenceable(48) %0) unnamed_addr #0 {
  %2 = alloca %"class.std::__cxx11::basic_string", align 8
  %.not = icmp eq ptr %.40.val, null
  br i1 %.not, label %20, label %3

3:                                                ; preds = %1
  call void @_ZN5clang14PredefinedExpr11ComputeNameB5cxx11ENS_19PredefinedIdentKindEPKNS_4DeclEb(ptr dead_on_unwind nonnull writable sret(%"class.std::__cxx11::basic_string") align 8 %2, i32 noundef 7, ptr noundef nonnull %.40.val, i1 noundef zeroext false) #26
  %4 = getelementptr inbounds nuw i8, ptr %0, i64 24
  %5 = load ptr, ptr %4, align 8
  %6 = getelementptr inbounds nuw i8, ptr %0, i64 32
  %7 = load ptr, ptr %6, align 8
  %8 = ptrtoint ptr %5 to i64
  %9 = ptrtoint ptr %7 to i64
  %10 = sub i64 %8, %9
  %11 = icmp ult i64 %10, 9
  br i1 %11, label %12, label %14

12:                                               ; preds = %3
  %13 = call noundef nonnull align 8 dereferenceable(48) ptr @_ZN4llvm11raw_ostream5writeEPKcm(ptr noundef nonnull align 8 dereferenceable(48) %0, ptr noundef nonnull @.str.50, i64 noundef 9) #26
  br label %_ZN4llvm11raw_ostreamlsEPKc.exit

14:                                               ; preds = %3
  call void @llvm.memcpy.p0.p0.i64(ptr noundef nonnull align 1 dereferenceable(9) %7, ptr noundef nonnull align 1 dereferenceable(9) @.str.50, i64 9, i1 false)
  %15 = load ptr, ptr %6, align 8
  %16 = getelementptr inbounds i8, ptr %15, i64 9
  store ptr %16, ptr %6, align 8
  br label %_ZN4llvm11raw_ostreamlsEPKc.exit

_ZN4llvm11raw_ostreamlsEPKc.exit:                 ; preds = %12, %14
  %.0.i.i = phi ptr [ %13, %12 ], [ %0, %14 ]
  %17 = call noundef ptr @_ZNKSt7__cxx1112basic_stringIcSt11char_traitsIcESaIcEE4dataEv(ptr noundef nonnull align 8 dereferenceable(32) %2) #26
  %18 = call noundef i64 @_ZNKSt7__cxx1112basic_stringIcSt11char_traitsIcESaIcEE6lengthEv(ptr noundef nonnull align 8 dereferenceable(32) %2) #26
  %19 = call noundef nonnull align 8 dereferenceable(48) ptr @_ZN4llvm11raw_ostream5writeEPKcm(ptr noundef nonnull align 8 dereferenceable(48) %.0.i.i, ptr noundef %17, i64 noundef %18) #26
  call void @_ZNSt7__cxx1112basic_stringIcSt11char_traitsIcESaIcEED1Ev(ptr noundef nonnull align 8 dereferenceable(32) %2) #26
  br label %20

20:                                               ; preds = %1, %_ZN4llvm11raw_ostreamlsEPKc.exit
  ret void
}